; Function Attrs: nounwind uwtable
define hidden void @_PyAtExit_Fini(ptr noundef captures(none) %0) local_unnamed_addr #0 {
  %2 = getelementptr inbounds nuw i8, ptr %0, i64 10728
  %3 = getelementptr i8, ptr %0, i64 10736
  %.val = load ptr, ptr %3, align 8, !tbaa !16
  %4 = tail call i32 @PyList_Clear(ptr noundef %.val) #6
  %5 = load ptr, ptr %3, align 8, !tbaa !24
  %.not = icmp eq ptr %5, null
  br i1 %.not, label %Py_DECREF.exit, label %6

6:                                                ; preds = %1
  store ptr null, ptr %3, align 8, !tbaa !24
  %7 = load i32, ptr %5, align 8, !tbaa !25
  %.not.i = icmp sgt i32 %7, -1
  br i1 %.not.i, label %8, label %Py_DECREF.exit

8:                                                ; preds = %6
  %9 = add nsw i32 %7, -1
  store i32 %9, ptr %5, align 8, !tbaa !25
  %10 = icmp eq i32 %9, 0
  br i1 %10, label %11, label %Py_DECREF.exit

11:                                               ; preds = %8
  tail call void @_Py_Dealloc(ptr noundef nonnull %5) #6
  br label %Py_DECREF.exit

Py_DECREF.exit:                                   ; preds = %11, %8, %6, %1
  %12 = load ptr, ptr %2, align 8, !tbaa !13
  store ptr null, ptr %2, align 8, !tbaa !13
  %.not1819 = icmp eq ptr %12, null
  br i1 %.not1819, label %._crit_edge, label %.lr.ph

.lr.ph:                                           ; preds = %Py_DECREF.exit, %.lr.ph
  %.020 = phi ptr [ %14, %.lr.ph ], [ %12, %Py_DECREF.exit ]
  %13 = getelementptr inbounds nuw i8, ptr %.020, i64 16
  %14 = load ptr, ptr %13, align 8, !tbaa !26
  %15 = load ptr, ptr %.020, align 8, !tbaa !9
  %16 = getelementptr inbounds nuw i8, ptr %.020, i64 8
  %17 = load ptr, ptr %16, align 8, !tbaa !12
  tail call void @PyMem_Free(ptr noundef nonnull %.020) #6
  tail call void %15(ptr noundef %17) #6
  %.not18 = icmp eq ptr %14, null
  br i1 %.not18, label %._crit_edge, label %.lr.ph, !llvm.loop !27

._crit_edge:                                      ; preds = %.lr.ph, %Py_DECREF.exit
  ret void
}